; Function Attrs: nounwind uwtable
define hidden void @zim_Exception_getFile(ptr nocapture noundef readonly %0, ptr nocapture noundef writeonly %1) #0 {
  %3 = alloca %struct._zval_struct, align 8
  %4 = getelementptr inbounds i8, ptr %0, i64 44
  %5 = load i32, ptr %4, align 4
  %.not = icmp eq i32 %5, 0
  br i1 %.not, label %7, label %6

6:                                                ; preds = %2
  tail call void @zend_wrong_parameters_none_error() #15
  br label %40

7:                                                ; preds = %2
  %8 = getelementptr inbounds i8, ptr %0, i64 32
  %9 = load ptr, ptr %8, align 8
  %10 = getelementptr i8, ptr %9, i64 16
  %.val = load ptr, ptr %10, align 8
  %11 = load ptr, ptr @zend_ce_exception, align 8
  %12 = icmp eq ptr %11, %.val
  br i1 %12, label %i_get_exception_base.exit, label %13

13:                                               ; preds = %7
  %14 = tail call zeroext i1 @instanceof_function_slow(ptr noundef %.val, ptr noundef %11) #15
  %zend_ce_exception.val.i = load ptr, ptr @zend_ce_exception, align 8
  %zend_ce_error.val.i = load ptr, ptr @zend_ce_error, align 8
  %.pre.i = select i1 %14, ptr %zend_ce_exception.val.i, ptr %zend_ce_error.val.i
  %.pre = load ptr, ptr %8, align 8
  br label %i_get_exception_base.exit

i_get_exception_base.exit:                        ; preds = %7, %13
  %15 = phi ptr [ %9, %7 ], [ %.pre, %13 ]
  %16 = phi ptr [ %.val, %7 ], [ %.pre.i, %13 ]
  %17 = load ptr, ptr @zend_known_strings, align 8
  %18 = load ptr, ptr %17, align 8
  %19 = call ptr @zend_read_property_ex(ptr noundef %16, ptr noundef %15, ptr noundef %18, i1 noundef zeroext false, ptr noundef nonnull %3) #15
  %20 = getelementptr inbounds i8, ptr %19, i64 8
  %21 = load i8, ptr %20, align 8
  %22 = icmp eq i8 %21, 6
  br i1 %22, label %23, label %31

23:                                               ; preds = %i_get_exception_base.exit
  %24 = load ptr, ptr %19, align 8
  %25 = getelementptr inbounds i8, ptr %24, i64 4
  %26 = load i32, ptr %25, align 4
  %27 = and i32 %26, 64
  %.not18 = icmp eq i32 %27, 0
  br i1 %.not18, label %28, label %33

28:                                               ; preds = %23
  %29 = load i32, ptr %24, align 4
  %30 = add i32 %29, 1
  store i32 %30, ptr %24, align 4
  br label %33

31:                                               ; preds = %i_get_exception_base.exit
  %32 = call ptr @zval_get_string_func(ptr noundef nonnull %19) #15
  br label %33

33:                                               ; preds = %23, %28, %31
  %34 = phi ptr [ %32, %31 ], [ %24, %28 ], [ %24, %23 ]
  store ptr %34, ptr %1, align 8
  %35 = getelementptr inbounds i8, ptr %34, i64 4
  %36 = load i32, ptr %35, align 4
  %37 = and i32 %36, 64
  %.not19 = icmp eq i32 %37, 0
  %38 = select i1 %.not19, i32 262, i32 6
  %39 = getelementptr inbounds i8, ptr %1, i64 8
  store i32 %38, ptr %39, align 8
  br label %40

40:                                               ; preds = %33, %6
  ret void
}